(lp0
S'acadia national park - wikipedia, the free encyclopedia acadia national park from wikipedia, the free encyclopedia navigation search acadia national park iucn national park location hancock knox maine nearest city bar harbor coordinates 4421n 6813w 44.350n 68.217w 44.350; -68.217 coordinates 4421n 6813w 44.350n 68.217w 44.350; -68.217 area 47,452.80 acres (74.14500 sq mi; 19,203.47 ha; 192.0347 km 2 933.23 acres (1.45817 sq mi; 377.66 ha; 3.7766 km 2 1 established july 8, 1916 1916-07-08 visitors 2,563,129 (in 2014) 2 governing body national park service computer-generated image acadia national park national park maine mount desert island atlantic coast lafayette national park 3 3 mississippi river two eastern canadian national parks are older:  thousand islands point pelee ontario 4 contents 1 history 1.1 beginnings 1.2 fire of 1947 1.3 friends of acadia 1.3.1 schoodic education and research center 2 terrain and features 3 wildlife 4 plants 5 gallery 6 see also 7 references 8 external links history edit the area was originally inhabited by the  wabanaki 5 while he was sailing down the coast of what is now maine in the fall of 1604,  samuel de champlain km] in length, off which we were almost lost on a little rock, level with the surface of the water, which made a hole in our pinnace close to the keel. the distance from this island to the mainland on the north is not a hundred paces. it is very high and cleft in places, giving it the appearance from the sea of seven or eight mountains one alongside the other. the tops of them are bare of trees, because there is nothing there but rocks. the woods consist only of pines, firs, and birches." he named it  mount desert island 6 over four centuries later, the area remains essentially the same. 7 beginnings edit the landscape architect  charles eliot 8 charles w. eliot woodrow wilson marquis de lafayette acadia from 1915 to 1933, the wealthy philanthropist  john d. rockefeller, jr. beatrix farrand reef point estate 9 km) of gravel carriage trails, 17 granite bridges, and two gate lodges, almost all of which are still maintained and in use today. cut granite stones placed along the edges of the carriage roads act as guard rails of sort and are locally known as "coping stones" to help visitors cope with the steep edges. they are also known as "rockefeller\'s teeth". acadia national park\'s first naturalist, arthur stupka, also had the distinction of being the first nps naturalist to serve in any of the nps\'s eastern united states districts. he joined the park staff in 1932, and in the capacity of park naturalist he wrote, edited and published a five-volume serial (1932-1935) entitled  nature notes from acadia. fire of 1947 edit main article:  great fires of 1947 beginning on october 17, 1947, 10,000 acres (4,000 ha) of acadia national park burned in a fire that began along the crooked road several miles west of hulls cove. 10 allowed to occur naturally 11 friends of acadia edit in 1986, a group of acadia-area residents and park volunteers formed the membership-based nonprofit organization friends of acadia for the purpose of organizing volunteer effort and private philanthropy for the benefit of acadia national park. the group\'s first major achievement was a $3.4 million endowment to maintain the parks 44-mile (71 km) carriage road system in perpetuity, which leveraged federal funds to fully restore the road system. subsequent projects and partnerships included acadia trails forever, making acadia the first national park with an endowed trail system; the island explorer, a free,  propane 12 schoodic education and research center edit in 2002, the national park service acquired the former naval base located in the schoodic peninsula district of acadia national park, and renovated it into the schoodic education and research center (serc). serc is one of about 20 national park service research learning centers in the united states, and is the largest of all these facilities. it is dedicated to supporting the scientific research in the park, providing professional development for teachers, and educating students to become a new generation of stewards who will help conserve our natural and cultural treasures. 13 terrain and features edit frenchman bay porcupine islands bar harbor cadillac mountain the park includes  mountains shoreline woodlands lakes isle au haut baker island schoodic peninsula mainland in total, acadia national park consists of more than 47,000 acres (19,000 ha), 3 ha) on mount desert island, 2,728 acres (1,104 ha) on isle au haut and 2,366 acres (957 ha) on the schoodic peninsula. the permanent park boundary, as established by act of congress in 1986, includes a number of private in-holdings that the park is attempting to acquire. cadillac mountain antoine laumet de la mothe, sieur de cadillac cadillac mountain the inlet  somes sound fjord east coast 14 fjard 15 16 about 2 million people visit this park per year. wildlife edit the park is home to some 40 different species of mammalian wildlife. among these are red and gray  squirrels chipmunks white-tailed deer moose beaver castor canadensis porcupine muskrats foxes coyote bobcats black bears each summer several trails in the park are closed to protect nesting  peregrine falcons excavations of old indian sites in the mount desert island region have yielded remains of the native mammals. bones of wolf, beaver, deer, elk,  gray seal halichoerus grypus indian dog sea mink neovison macrodon 17 large fire in 1947 18 species that used to inhabit the island include the  mountain lion gray wolf zoologists plants edit despite its small size (acadia national park covers less than one percent of maine\'s land area) the park is known to harbor over 50 percent of the  vascular plants 19 algae fungi herbarium college of the atlantic gallery edit view from the summit of mt. penobscot jordan pond otter cove sand beach from a mountain overlook schoodic peninsula thunder hole see also edit maine portal blackwoods campground national register of historic places listings in acadia national park nearby towns  bar harbor, maine southwest harbor, maine northeast harbor, maine tremont, maine bass harbor head light college of the atlantic references edit 2011-05-06 2015-06-16 a b c 2010-07-25 archived 2010-07-25 commissioned by the national park service, a 2-volume report "asticou\'s island domain: wabanaki peoples at mount desert island 15002000" (2007) was authored by harald e.l. prins and bunny mcbride. this digital text detailing acadia national parks cultural and natural history is freely accessible  nps.gov canadian-american center cartography studio.  6 february 2010-01-16 2009-07-25 jane brown (1995-03-01).  beatrix: the gardening life of beatrix jones farrand, 1872-1959 208.  isbn 0-670-83217-0 archived 2010-07-25 http://www.nps.gov/acad/historyculture/fireof1947.htm http://www.friendsofacadia.org http://www.nps.gov/acad/serc.htm debbie harmsen (2008).  maine coast 248.  isbn 978-1-4000-1904-5 2010-07-25 2010-07-25 earthcache program 2010-07-25 richard h. manville (november 1941). "notes on the mammals of mount desert island, maine".  journal of mammalogy 23 doi 10.2307/1375049 jstor 1375049 d. muller-schwarze, susan heckman (1980).  journal of chemical ecology 6 doi 10.1007/bf00987529 2010-09-04 harris, tanner; nishanta rajakaruna; sarah j. nelson; peter d. vaux (2012). "stressors and threats to the flora of acadia national park, maine: current knowledge, information gaps, and future directions".  journal of the torrey botanical society 139 doi 10.3159/torrey-d-11-00086.1 external links edit wikimedia commons has media related to  acadia national park wikivoyage has a travel guide for  acadia national park acadia national park life on an island: early settlers off the rock-bound coast of maine teaching with historic places http://zeitcam.com/webcam/acadia http://bluehillwebcam.com http://www.terrain360.com/parks/acadia-national-park v t e national parks acadia american samoa arches badlands big bend biscayne black canyon of the gunnison bryce canyon canyonlands capitol reef carlsbad caverns channel islands congaree crater lake cuyahoga valley death valley denali dry tortugas everglades gates of the arctic glacier glacier bay grand canyon grand teton great basin great sand dunes great smoky mountains guadalupe mountains haleakal hawaii volcanoes hot springs isle royale joshua tree katmai kenai fjords kings canyon kobuk valley lake clark lassen volcanic mammoth cave mesa verde mount rainier north cascades olympic petrified forest pinnacles redwood rocky mountain saguaro sequoia shenandoah theodore roosevelt virgin islands voyageurs wind cave wrangellst. elias yellowstone yosemite zion list of national parks of the united states elevation v t e protected areas maine federal national parks acadia national park saint croix island international historic site national wildlife refuges aroostook carlton pond waterfowl production area cross island franklin island moosehorn petit manan pond island rachel carson seal island sunkhaze meadows national forests white mountain national trails appalachian trail national estuarine wells state state parks allagash wilderness waterway aroostook baxter birch point bradbury mountain camden hills cobscook bay crescent beach damariscotta lake ferry beach fort point grafton notch holbrook island sanctuary lake st. george lamoine lilly bay moose point mount blue peacock beach peaks-kenny penobscot river corridor popham beach quoddy head range ponds rangeley lake reid roque bluffs shackford head sebago lake swans falls campground swan lake two lights vaughan woods warren island wolfe\'s neck woods state historic sites bible point colburn house colonial pemaquid eagle island fort baldwin fort edgecomb fort halifax fort kent fort knox fort mcclary fort o\'brien major reuben colburn house john paul jones katahdin iron works mayall mills whaleback shell midden state forests durham state forest maine department of conservation web https://en.wikipedia.org/w/index.php?title=acadia_national_park oldid=703312944 categories iucn category ii mount desert island acadia national park institutions founded by the rockefeller family hidden categories:  coordinates on wikidata navigation menu personal tools not logged in talk contributions create account log in namespaces article talk variants views read edit view history more search navigation main page contents featured content current events random article donate to wikipedia wikipedia store interaction help about wikipedia community portal recent changes contact page tools what links here related changes upload file special pages permanent link page information wikidata item cite this page print/export create a book download as pdf printable version languages catal dansk deutsch espaol franais hrvatski italiano lietuvi nederlands norsk bokml polski portugus romn runa simi suomi svenska trke edit links text is available under the  creative commons attribution-sharealike license terms of use privacy policy wikimedia foundation, inc. privacy policy about wikipedia disclaimers contact wikipedia developers cookie statement mobile view'
p1
a.