(lp0
S'acadia national park - wikipedia, the free encyclopedia acadia national park from wikipedia, the free encyclopedia navigation search acadia national park iucn national park location hancock knox maine nearest city bar harbor coordinates 4421n 6813w 44.350n 68.217w 44.350; -68.217 coordinates 4421n 6813w 44.350n 68.217w 44.350; -68.217 area 47,452.80 acres (74.14500 sq mi; 19,203.47 ha; 192.0347 km 2 933.23 acres (1.45817 sq mi; 377.66 ha; 3.7766 km 2 1 established july 8, 1916 1916-07-08 visitors 2,563,129 (in 2014) 2 governing body national park service computer-generated image acadia national park national park maine mount desert island atlantic coast lafayette national park 3 3 mississippi river two eastern canadian national parks are older:  thousand islands point pelee ontario 4 contents 1 history 1.1 beginnings 1.2 fire of 1947 1.3 friends of acadia 1.3.1 schoodic education and research center 2 terrain and features 3 wildlife 4 plants 5 gallery 6 see also 7 references 8 external links history edit the area was originally inhabited by the  wabanaki 5 while he was sailing down the coast of what is now maine in the fall of 1604,  samuel de champlain km] in length, off which we were almost lost on a little rock, level with the surface of the water, which made a hole in our pinnace close to the keel. the distance from this island to the mainland on the north is not a hundred paces. it is very high and cleft in places, giving it the appearance from the sea of seven or eight mountains one alongside the other. the tops of them are bare of trees, because there is nothing there but rocks. the woods consist only of pines, firs, and birches." he named it  mount desert island 6 over four centuries later, the area remains essentially the same. 7 beginnings edit the landscape architect  charles eliot 8 charles w. eliot woodrow wilson marquis de lafayette acadia from 1915 to 1933, the wealthy philanthropist  john d. rockefeller, jr. beatrix farrand reef point estate 9 km) of gravel carriage trails, 17 granite bridges, and two gate lodges, almost all of which are still maintained and in use today. cut granite stones placed along the edges of the carriage roads act as guard rails of sort and are locally known as "coping stones" to help visitors cope with the steep edges. they are also known as "rockefeller\'s teeth". acadia national park\'s first naturalist, arthur stupka, also had the distinction of being the first nps naturalist to serve in any of the nps\'s eastern united states districts. he joined the park staff in 1932, and in the capacity of park naturalist he wrote, edited and published a five-volume serial (1932-1935) entitled  nature notes from acadia. fire of 1947 edit main article:  great fires of 1947 beginning on october 17, 1947, 10,000 acres (4,000 ha) of acadia national park burned in a fire that began along the crooked road several miles west of hulls cove. 10 allowed to occur naturally 11 friends of acadia edit in 1986, a group of acadia-area residents and park volunteers formed the membership-based nonprofit organization friends of acadia for the purpose of organizing volunteer effort and private philanthropy for the benefit of acadia national park. the group\'s first major achievement was a $3.4 million endowment to maintain the parks 44-mile (71 km) carriage road system in perpetuity, which leveraged federal funds to fully restore the road system. subsequent projects and partnerships included acadia trails forever, making acadia the first national park with an endowed trail system; the island explorer, a free,  propane 12 schoodic education and research center edit in 2002, the national park service acquired the former naval base located in the schoodic peninsula district of acadia national park, and renovated it into the schoodic education and research center (serc). serc is one of about 20 national park service research learning centers in the united states, and is the largest of all these facilities. it is dedicated to supporting the scientific research in the park, providing professional development for teachers, and educating students to become a new generation of stewards who will help conserve our natural and cultural treasures. 13 terrain and features edit frenchman bay porcupine islands bar harbor cadillac mountain the park includes  mountains shoreline woodlands lakes isle au haut baker island schoodic peninsula mainland in total, acadia national park consists of more than 47,000 acres (19,000 ha), 3 ha) on mount desert island, 2,728 acres (1,104 ha) on isle au haut and 2,366 acres (957 ha) on the schoodic peninsula. the permanent park boundary, as established by act of congress in 1986, includes a number of private in-holdings that the park is attempting to acquire. cadillac mountain antoine laumet de la mothe, sieur de cadillac cadillac mountain the inlet  somes sound fjord east coast 14 fjard 15 16 about 2 million people visit this park per year. wildlife edit the park is home to some 40 different species of mammalian wildlife. among these are red and gray  squirrels chipmunks white-tailed deer moose beaver castor canadensis porcupine muskrats foxes coyote bobcats black bears each summer several trails in the park are closed to protect nesting  peregrine falcons excavations of old indian sites in the mount desert island region have yielded remains of the native mammals. bones of wolf, beaver, deer, elk,  gray seal halichoerus grypus indian dog sea mink neovison macrodon 17 large fire in 1947 18 species that used to inhabit the island include the  mountain lion gray wolf zoologists plants edit despite its small size (acadia national park covers less than one percent of maine\'s land area) the park is known to harbor over 50 percent of the  vascular plants 19 algae fungi herbarium college of the atlantic gallery edit view from the summit of mt. penobscot jordan pond otter cove sand beach from a mountain overlook schoodic peninsula thunder hole see also edit maine portal blackwoods campground national register of historic places listings in acadia national park nearby towns  bar harbor, maine southwest harbor, maine northeast harbor, maine tremont, maine bass harbor head light college of the atlantic references edit 2011-05-06 2015-06-16 a b c 2010-07-25 archived 2010-07-25 commissioned by the national park service, a 2-volume report "asticou\'s island domain: wabanaki peoples at mount desert island 15002000" (2007) was authored by harald e.l. prins and bunny mcbride. this digital text detailing acadia national parks cultural and natural history is freely accessible  nps.gov canadian-american center cartography studio.  6 february 2010-01-16 2009-07-25 jane brown (1995-03-01).  beatrix: the gardening life of beatrix jones farrand, 1872-1959 208.  isbn 0-670-83217-0 archived 2010-07-25 http://www.nps.gov/acad/historyculture/fireof1947.htm http://www.friendsofacadia.org http://www.nps.gov/acad/serc.htm debbie harmsen (2008).  maine coast 248.  isbn 978-1-4000-1904-5 2010-07-25 2010-07-25 earthcache program 2010-07-25 richard h. manville (november 1941). "notes on the mammals of mount desert island, maine".  journal of mammalogy 23 doi 10.2307/1375049 jstor 1375049 d. muller-schwarze, susan heckman (1980).  journal of chemical ecology 6 doi 10.1007/bf00987529 2010-09-04 harris, tanner; nishanta rajakaruna; sarah j. nelson; peter d. vaux (2012). "stressors and threats to the flora of acadia national park, maine: current knowledge, information gaps, and future directions".  journal of the torrey botanical society 139 doi 10.3159/torrey-d-11-00086.1 external links edit wikimedia commons has media related to  acadia national park wikivoyage has a travel guide for  acadia national park acadia national park life on an island: early settlers off the rock-bound coast of maine teaching with historic places http://zeitcam.com/webcam/acadia http://bluehillwebcam.com http://www.terrain360.com/parks/acadia-national-park v t e national parks acadia american samoa arches badlands big bend biscayne black canyon of the gunnison bryce canyon canyonlands capitol reef carlsbad caverns channel islands congaree crater lake cuyahoga valley death valley denali dry tortugas everglades gates of the arctic glacier glacier bay grand canyon grand teton great basin great sand dunes great smoky mountains guadalupe mountains haleakal hawaii volcanoes hot springs isle royale joshua tree katmai kenai fjords kings canyon kobuk valley lake clark lassen volcanic mammoth cave mesa verde mount rainier north cascades olympic petrified forest pinnacles redwood rocky mountain saguaro sequoia shenandoah theodore roosevelt virgin islands voyageurs wind cave wrangellst. elias yellowstone yosemite zion list of national parks of the united states elevation v t e protected areas maine federal national parks acadia national park saint croix island international historic site national wildlife refuges aroostook carlton pond waterfowl production area cross island franklin island moosehorn petit manan pond island rachel carson seal island sunkhaze meadows national forests white mountain national trails appalachian trail national estuarine wells state state parks allagash wilderness waterway aroostook baxter birch point bradbury mountain camden hills cobscook bay crescent beach damariscotta lake ferry beach fort point grafton notch holbrook island sanctuary lake st. george lamoine lilly bay moose point mount blue peacock beach peaks-kenny penobscot river corridor popham beach quoddy head range ponds rangeley lake reid roque bluffs shackford head sebago lake swans falls campground swan lake two lights vaughan woods warren island wolfe\'s neck woods state historic sites bible point colburn house colonial pemaquid eagle island fort baldwin fort edgecomb fort halifax fort kent fort knox fort mcclary fort o\'brien major reuben colburn house john paul jones katahdin iron works mayall mills whaleback shell midden state forests durham state forest maine department of conservation web https://en.wikipedia.org/w/index.php?title=acadia_national_park oldid=703312944 categories iucn category ii mount desert island acadia national park institutions founded by the rockefeller family hidden categories:  coordinates on wikidata navigation menu personal tools not logged in talk contributions create account log in namespaces article talk variants views read edit view history more search navigation main page contents featured content current events random article donate to wikipedia wikipedia store interaction help about wikipedia community portal recent changes contact page tools what links here related changes upload file special pages permanent link page information wikidata item cite this page print/export create a book download as pdf printable version languages catal dansk deutsch espaol franais hrvatski italiano lietuvi nederlands norsk bokml polski portugus romn runa simi suomi svenska trke edit links text is available under the  creative commons attribution-sharealike license terms of use privacy policy wikimedia foundation, inc. privacy policy about wikipedia disclaimers contact wikipedia developers cookie statement mobile view'
p1
aS'arches national park - wikipedia, the free encyclopedia arches national park from wikipedia, the free encyclopedia navigation search arches national park iucn national park the organ is an impressive sandstone tower. location grand county utah united states nearest city moab, utah coordinates 384100n 1093400w 38.68333n 109.56667w 38.68333; -109.56667 coordinates 384100n 1093400w 38.68333n 109.56667w 38.68333; -109.56667 area 76,679 acres (119.811 sq mi; 31,031 ha; 310.31 km 2 1 established april 12, 1929 1929-04-12 national monument visitors 1,284,767 (in 2014) 2 governing body national park service http://www.nps.gov/arch/index.htm arches national park us national park utah km) north of moab, utah. it is known for containing over 2,000  natural sandstone arches delicate arch the park is located just outside  moab, utah sq mi; 31,031 ha; 310.31 km 2 3 m) at elephant butte, and its lowest elevation is 4,085 feet (1,245 m) at the  visitor center mm) of rain a year on average. administered by the  national park service national monument 4 contents 1 geology 2 climate 3 history 4 recreational activities 5 publicity 6 plants and animals 7 features 8 gallery 9 see also 10 references 11 further reading 12 external links geology edit the national park lies atop an underground  evaporite salt sandstone fins paradox basin colorado plateau uncompahgre uplift jurassic navajo sandstone entrada sandstone cretaceous mancos shale 5 the weight of this cover caused the salt bed below it to liquefy and thrust up layers of rock into  salt domes salt  anticlines 5 faulting m) displacement, the  moab fault delicate arch la sal mountains as this subsurface movement of salt shaped the landscape,  erosion entrada sandstone navajo sandstone although the park\'s terrain appears rugged and durable, it is the exact opposite. more than 700,000 visitors each year threaten the fragile high desert ecosystem. 6 7 climate edit climate data for arches national park headquarters (19812015 normals) month jan feb mar apr may jun jul aug sep oct nov dec year average high f (c) 44 52 64 71 82 93 100 97 88 74 56 45 71.4 average low f (c) 22 28 35 42 51 60 67 66 55 42 30 23 44.8 average  precipitation 0.58 0.50 0.78 0.74 0.68 0.44 0.83 0.96 0.84 1.24 0.60 0.55 8.74 average snowfall inches (cm) 1.9 0 0 0 0 0 0 0 2.5 6.6 average precipitation days  4.0 4.4 6.1 5.3 4.6 3.1 5.2 6.6 5.2 5.5 4.5 3.9 58.4 average snowy days  1.3 0 0 0 0 0 0 0 1.4 4.3 source: noaa (extremes 1893present) 8 climate data for moab, utah (19812010 normals) month jan feb mar apr may jun jul aug sep oct nov dec year record high f (c) 67 78 88 96 109 113 114 110 108 97 82 67 114 average high f (c) 43.3 51.2 63.2 72.4 82.9 93.1 98.9 96.0 87.1 73.2 56.0 44.2 71.8 average low f (c) 19.8 26.1 34.5 41.9 49.7 57.8 64.5 63.1 53.1 40.7 29.6 21.3 41.8 record low f (c) 24 13 8 15 27 36 43 40 28 15 2 19 24 average  precipitation 0.61 0.59 0.79 0.83 0.73 0.43 0.99 0.97 0.87 1.17 0.74 0.69 9.41 average snowfall inches (cm) 2.1 1.0 0 0 0 0 0 0 2.8 6.9 average precipitation days  5.0 5.6 6.0 5.8 4.8 2.9 4.8 6.4 5.7 5.6 4.7 5.1 62.3 average snowy days  1.2 0 0 0 0 0 0 0 1.5 3.9 source: noaa (extremes 1893present) 8 history edit humans have occupied the region since the last  ice age fremont people ancient pueblo people ute paiute mormon rock formations tourist the arches area was first brought to the attention of the national park service by frank a. wadleigh, passenger traffic manager of the  denver and rio grande western railroad hungarian prospector fiery furnace the following year, additional support for the monument idea came from  laurence gould university of michigan geology la sal mountains a succession of government investigators examined the area, in part due to confusion as to the precise location. in the process, the name "devil\'s garden" was transposed to an area on the opposite side of salt valley, and ringhoffer\'s original discovery was omitted, while another area nearby, known locally as "the windows", was included. designation of the area as a national monument was supported by the park service from 1926, but was resisted by president  calvin coolidge hubert work herbert hoover antiquities act in late 1938, president  franklin d. roosevelt dwight eisenhower in early 1969, just before leaving office, president  lyndon b. johnson richard nixon congress recreational activities edit climbing on named arches within the park has long been banned by park regulations. following  dean potter free climb delicate arch attorney all rock climbing or similar activities on any arch or natural bridge named on the  united states geological survey 9 climbing on other features in the park is allowed, but regulated. the revised regulations also prohibit  slacklining astronomy is also popular in the park due to its dark skies despite the increasing  light pollution 10 11 publicity edit american writer  edward abbey park ranger desert solitaire adventure-based recreation hikers mountain-bikers off-road hayduke trail km) backpacking route named after one of  edward abbey\'s characters arches national park was used as one of the filming locations for the 1965 biblical film,  the greatest story ever told portions of the windows section of arches national park were used as locations in the 1989 film  indiana jones and the last crusade arches national park is the subject of the third 2014 quarter scheduled as part of the u.s. mint\'s  america the beautiful quarters plants and animals edit there is an abundance of  wildlife spadefoot toad antelope squirrel scrub jay peregrine falcon sparrows red fox desert bighorn sheep kangaroo rat mule deer mountain lion midget faded rattlesnake yucca moth cyanobacteria western rattlesnake western collared lizard 12 plants also dominate the landscape in the park. the list of plants includes:  prickly pear cactus indian ricegrass bunch grasses cheatgrass lichen moss liverworts utah juniper mormon tea blackbrush cliffrose four-winged saltbrush pinyon pine stemless woollybase evening primrose sand verbena yucca sacred datura 13 features edit among the notable features of the park are: balanced rock courthouse towers dark angel m) sandstone pillar at the end of the devil\'s garden trail delicate arch devil\'s garden double arch fiery furnace fiery furnace landscape arch m) (this is the longest arch in the park) petrified dunes sand dunes wall arch 14 15 gallery edit view at the entrance of the park balanced rock balanced rock during winter dark angel delicate arch, one of the most famous arches in the world the delicate arch through frame arch the double arch double o arch superior arch of double o arch landscape arch skyline arch north window as viewed from windows trails see also edit utah portal natural bridges national monument rainbow bridge national monument national register of historic places listings in arches national park references edit 2012-03-05 2015-06-16 nationalgeographic.com 2 october the national parks: index 20092011 archived 2011-06-08 a b kiver, eugene p. and david v. harris,  geology of u. s. parklands, isbn 0-471-33218-6 guide to the national parks of the united states belnap, j. "choosing indicators of natural resource condition: a case study in arches national park, utah, usa." environmental management new york. 22.4 (1998): 635642.print. a b national oceanic and atmospheric administration 2013-07-03 cite error: invalid  ref help page 2011-06-08 archived 2011-01-04 2011-01-04 2013-11-30 2013-11-30 national park service stark, mike (august 10, 2008).  washington post further reading edit geologic road and trail guides to arches national park external links edit find more about arches national park sister projects media travel guide official website utah office of tourism page on arches national park historic american engineering record ut-70, " arches national park main entrance road, beginning at u.s. highway 191, approximately 6 miles north of moab, moab, grand county, ut photos, 3 color transparencies, 23 data pages, 2 photo caption pages haer no. ut-70-a, " arches national park main entrance road, moab canyon wash culvert, spanning moab canyon wash at main entrance road, moab, grand county, ut photos, 6 data pages, 1 photo caption page v t e national parks acadia american samoa arches badlands big bend biscayne black canyon of the gunnison bryce canyon canyonlands capitol reef carlsbad caverns channel islands congaree crater lake cuyahoga valley death valley denali dry tortugas everglades gates of the arctic glacier glacier bay grand canyon grand teton great basin great sand dunes great smoky mountains guadalupe mountains haleakal hawaii volcanoes hot springs isle royale joshua tree katmai kenai fjords kings canyon kobuk valley lake clark lassen volcanic mammoth cave mesa verde mount rainier north cascades olympic petrified forest pinnacles redwood rocky mountain saguaro sequoia shenandoah theodore roosevelt virgin islands voyageurs wind cave wrangellst. elias yellowstone yosemite zion list of national parks of the united states elevation v t e protected areas utah federal national parks arches bryce canyon canyonlands capitol reef zion nps national monuments cedar breaks dinosaur hovenweep natural bridges rainbow bridge timpanogos cave national historic site golden spike national recreation area glen canyon national historic trail mormon pioneer national forests ashley caribou-targhee dixie fishlake manti-la sal sawtooth uinta-wasatch-cache forest service areas desert biosphere reserve flaming gorge national recreation area national wildlife refuges bear river migratory bird refuge fish springs ouray national conservation areas beaver dam wash red cliffs blm national monument grand staircase-escalante u.s. wilderness areas ashdown gorge beartrap canyon beaver dam mountains black ridge canyons blackridge box-death hollow canaan mountain cedar mountain cottonwood canyon cottonwood forest cougar canyon dark canyon deep creek deep creek north deseret peak doc\'s pass goose creek high uintas laverkin creek lone peak mount naomi mount nebo mount olympus mount timpanogos paria canyon-vermilion cliffs pine valley mountain red butte red mountains slaughter creek taylor creek twin peaks wellsville mountain zion state state parks northern region antelope island bear lake camp floyd/stagecoach inn deer creek east canyon flight park great salt lake historic union pacific rail trail hyrum jordan river ohv park jordanelle red fleet rockport starvation steinaker utah field house of natural history utah lake wasatch mountain willard bay state parks central region fremont indian goblin valley green river huntington millsite palisade scofield territorial statehouse yuba state parks southern region anasazi coral pink sand dunes dead horse point edge of the cedars escalante petrified forest frontier homestead goosenecks gunlock kodachrome basin otter creek piute quail creek sand hollow snow canyon utah state parks and recreation v t e state utah salt lake city topics cities congressional districts counties flag geography government governors healthcare history people portal state fair symbols visitor attractions society culture crime demographics economy education politics regions cache valley colorado plateau dixie great basin great salt lake great salt lake desert mojave desert monument valley san rafael swell uinta basin uinta mountains wasatch back wasatch front wasatch range largest cities american fork bountiful cedar city clearfield cottonwood heights draper holladay kaysville layton lehi logan midvale murray ogden orem pleasant grove provo riverton roy st. george salt lake city sandy south jordan south salt lake spanish fork springville taylorsville tooele west jordan west valley city counties beaver box elder cache carbon daggett davis duchesne emery garfield grand iron juab kane millard morgan piute rich salt lake san juan sanpete sevier summit tooele uintah utah wasatch washington wayne weber attractions arches national park bonneville salt flats bryce canyon national park canyonlands national park capitol reef national park great salt lake lagoon amusement park ski areas sundance film festival temple square utah shakespeare festival zion national park v t e colorado river jurisdictions united states  arizona california colorado nevada new mexico utah wyoming mexico  baja california sonora canyons byers canyon gore canyon red gorge glenwood canyon de beque canyon horsethief canyon ruby canyon westwater canyon cataract canyon narrow canyon glen canyon grand canyon marble canyon granite gorge middle granite gorge lower granite gorge grand wash canyon iceberg canyon virgin canyon boulder canyon black canyon pyramid canyon mohave canyon natural features river course rocky mountains colorado river basin colorado plateau grand lake horseshoe bend sonoran desert mojave desert mohave valley parker valley palo verde valley colorado desert salton sea imperial valley new river delta montague island gulf of california/sea of cortez tributaries blue river dirty devil river dolores river escalante river eagle river fraser river gila river green river gunnison river kanab creek little colorado river paria river roaring fork river san juan river virgin river williams fork engineering mainstem dams shadow mountain granby windy gap grand valley price-stubb glen canyon hoover davis parker headgate rock palo verde imperial laguna morelos major reservoirs fontenelle reservoir flaming gorge reservoir blue mesa reservoir navajo lake lake powell lake mead lake mohave lake havasu imperial reservoir theodore roosevelt lake san carlos lake aqueducts and grand ditch colorado river aqueduct san diego aqueduct central arizona project all-american canal coachella canal water projects boulder canyon project colorado-big thompson project colorado river storage project grand valley ava yuma project designated areas arches national park canyonlands national park colorado national monument dead horse point state park glen canyon national recreation area grand canyon national park lake mead national recreation area rocky mountain national park related topics arizona v. california colorado river board of california colorado river compact floyd dominy lee\'s ferry international boundary and water commission metropolitan water district of southern california rapids and features u.s. bureau of reclamation william mulholland https://en.wikipedia.org/w/index.php?title=arches_national_park oldid=702838074 categories iucn category ii arches national park 1929 establishments in utah colorado plateau national parks in utah native american archeology natural arches of utah protected areas established in 1971 protected areas of grand county, utah protected areas on the colorado river landforms of grand county, utah hidden categories:  pages with reference errors pages with duplicate reference names coordinates on wikidata navigation menu personal tools not logged in talk contributions create account log in namespaces article talk variants views read edit view history more search navigation main page contents featured content current events random article donate to wikipedia wikipedia store interaction help about wikipedia community portal recent changes contact page tools what links here related changes upload file special pages permanent link page information wikidata item cite this page print/export create a book download as pdf printable version languages catal etina dansk deutsch espaol euskara franais hrvatski italiano ltzebuergesch lietuvi magyar nederlands norsk bokml polski portugus romn runa simi suomi svenska trke ting vit edit links text is available under the  creative commons attribution-sharealike license terms of use privacy policy wikimedia foundation, inc. privacy policy about wikipedia disclaimers contact wikipedia developers cookie statement mobile view'
p2
aS'list of arizona cardinals seasons - wikipedia, the free encyclopedia list of arizona cardinals seasons from wikipedia, the free encyclopedia arizona cardinals seasons navigation search this is a  list of seasons arizona cardinals american football franchise west national football conference national football league 1920 legend edit the order of league championship won by the franchise finish final position in league, division, or conference t-# finished tied in that position with one or more teams w wins l losses t ties mvp national football league most valuable player award coy national football league coach of the year award sb mvp super bowl most valuable player award opoy national football league offensive player of the year award dpoy national football league defensive player of the year award oroy national football league offensive rookie of the year award droy national football league defensive rookie of the year award wp moy walter payton man of the year award nfl champions super bowl champions conference champions division champions wild card berth qualified for playoffs season records edit season team league conference division regular season post season awards finish wins losses ties chicago cardinals 1920 1920 apfa 4th 6 2 2 the apfa/nfl did not hold playoff games until 1932 1921 1921 apfa 9th 3 3 2 1922 1922 nfl 3rd 8 3 0 1923 1923 nfl 6th 8 4 0 1924 1924 nfl 8th 5 4 1 1925 1925 nfl 1st 11 2 1 named nfl champions 1926 1926 nfl 10th 5 6 1 the apfa/nfl did not hold playoff games until 1932 1927 1927 nfl 9th 3 7 1 1928 1928 nfl 9th 1 5 0 1929 1929 nfl 4th 6 6 1 1930 1930 nfl 7th 5 6 2 1931 1931 nfl 4th 5 4 0 1932 1932 nfl 7th 2 6 2 1933 1933 nfl western 5th 1 9 1 1934 1934 nfl western 4th 5 6 0 1935 1935 nfl western t-3rd 6 4 2 1936 1936 nfl western 4th 3 8 1 1937 1937 nfl western 4th 5 5 1 1938 1938 nfl western 5th 2 9 0 1939 1939 nfl western 5th 1 10 0 1940 1940 nfl western 5th 2 7 2 1941 1941 nfl western 4th 3 7 1 1942 1942 nfl western 4th 3 8 0 1943 1943 nfl western 4th 0 10 0 card-pitt 1944 1944 nfl western 5th 0 10 0 chicago cardinals 1945 1945 nfl western 5th 1 9 0 1946 1946 nfl western t-3rd 6 5 0 1947 1947 nfl western 1st 9 3 0 won  nfl championship eagles jimmy conzelman coy 1948 1948 nfl western 1st 11 1 0 lost  nfl championship eagles pat harder mvp 1949 1949 nfl western 3rd 6 5 1 1950 1950 nfl american 5th 5 7 0 1951 1951 nfl american 6th 3 9 0 1952 1952 nfl american t-5th 4 8 0 1953 1953 nfl eastern 6th 1 10 1 1954 1954 nfl eastern 6th 2 10 0 1955 1955 nfl eastern t-4th 4 7 1 1956 1956 nfl eastern 2nd 7 5 0 1957 1957 nfl eastern 6th 3 9 0 1958 1958 nfl eastern t-5th 2 9 1 1959 1959 nfl eastern 6th 2 10 0 st. louis cardinals 1960 1960 nfl eastern 4th 6 5 1 1961 1961 nfl eastern 4th 7 7 0 1962 1962 nfl eastern 6th 4 9 1 1963 1963 nfl eastern 3rd 9 5 0 1964 1964 nfl eastern 2nd 9 3 2 1965 1965 nfl eastern t-5th 5 9 0 1966 1966 nfl eastern 4th 8 5 1 1967 1967 nfl eastern century 3rd 6 7 1 1968 1968 nfl eastern century 2nd 9 4 1 1969 1969 nfl eastern century 3rd 4 9 1 1970 1970 nfl nfc east 3rd 8 5 1 1971 1971 nfl nfc east 4th 4 9 1 1972 1972 nfl nfc east 4th 4 9 1 1973 1973 nfl nfc east 4th 4 9 1 1974 1974 nfl nfc east 1st 10 4 0 lost  divisional playoffs vikings don coryell coy 1975 1975 nfl nfc east 1st 11 3 0 lost  divisional playoffs rams 1976 1976 nfl nfc east 3rd 10 4 0 1977 1977 nfl nfc east 3rd 7 7 0 1978 1978 nfl nfc east 4th 6 10 0 1979 1979 nfl nfc east 5th 5 11 0 ottis anderson oroy 1980 1980 nfl nfc east 4th 5 11 0 1981 1981 nfl nfc east 5th 7 9 0 1982 1982 nfl nfc 6th 5 4 0 lost  first round packers 1983 1983 nfl nfc east 3rd 8 7 1 1984 1984 nfl nfc east 3rd 9 7 0 1985 1985 nfl nfc east 5th 5 11 0 1986 1986 nfl nfc east 5th 4 11 1 1987 1987 nfl nfc east 3rd 7 8 0 phoenix cardinals 1988 1988 nfl nfc east 4th 7 9 0 1989 1989 nfl nfc east 4th 5 11 0 1990 1990 nfl nfc east 5th 5 11 0 1991 1991 nfl nfc east 5th 4 12 0 1992 1992 nfl nfc east 5th 4 12 0 1993 1993 nfl nfc east 4th 7 9 0 arizona cardinals 1994 1994 nfl nfc east 3rd 8 8 0 1995 1995 nfl nfc east 5th 4 12 0 1996 1996 nfl nfc east 4th 7 9 0 simeon rice droy 1997 1997 nfl nfc east 5th 4 12 0 1998 1998 nfl nfc east 2nd 9 7 0 won wild card playoffs cowboys divisional playoffs vikings 1999 1999 nfl nfc east 4th 6 10 0 2000 2000 nfl nfc east 5th 3 13 0 2001 2001 nfl nfc east 4th 7 9 0 2002 2002 nfl nfc west 4th 5 11 0 2003 2003 nfl nfc west 4th 4 12 0 anquan boldin oroy 2004 2004 nfl nfc west 3rd 6 10 0 2005 2005 nfl nfc west 3rd 5 11 0 2006 2006 nfl nfc west 4th 5 11 0 2007 2007 nfl nfc west 2nd 8 8 0 2008 2008 nfl nfc west 1st 9 7 0 won wild card playoffs falcons won divisional playoffs panthers won nfc championship eagles super bowl xliii steelers kurt warner wp moy 2009 2009 nfl nfc west 1st 10 6 0 won wild card playoffs packers divisional playoffs saints 2010 2010 nfl nfc west 4th 5 11 0 2011 2011 nfl nfc west 2nd 8 8 0 2012 2012 nfl nfc west 4th 5 11 0 2013 2013 nfl nfc west 3rd 10 6 0 2014 2014 nfl nfc west 2nd 11 5 0 lost  wild card playoffs panthers bruce arians coy 2015 2015 nfl nfc west 1st 13 3 0 won divisional playoffs packers nfc championship panthers totals 165 248 25 chicago cardinals regular season record (19201943; 19451959) 0 10 0 card-pitt regular season record (1944) 186 202 14 st. louis cardinals regular season record (19601987) 32 64 0 phoenix cardinals regular season record (19881993) 152 200 0 arizona cardinals regular season record (19942015) 535 724 39 all-time regular season record (19202015) 7 9 0 all-time postseason record (19322015) 542 733 39 all-time regular season and postseason record (19202015) 2 nfl championships references edit cbs sportsline pro football reference.com v t e arizona cardinals formerly the  morgan athletic club racine normals racine cardinals chicago cardinals st. louis cardinals phoenix cardinals founded in 1898 based in  glendale arizona headquartered in  tempe arizona franchise history  in chicago in st. louis in arizona seasons head coaches players quarterbacks first-round draft picks stadiums normal park comiskey park forbes field soldier field busch stadium busch memorial stadium sun devil stadium university of phoenix stadium culture charles bidwill bill bidwill cheerleaders big red (mascot) jerry maguire lore 1925 chicago cardinalsmilwaukee badgers scandal 1925 nfl championship controversy card-pitt million dollar backfield 2006 dennis green rant rivalries kansas city chiefs division championships (7) 1947 1948 1974 1975 2008 2009 2015 league championships (2) 1925 1947 super bowl appearances (1) xliii retired numbers 8 40 77 88 99 current league affiliations league:  national football league conference:  national football conference division:  nfc west seasons (96) 1920s 1920 1921 1922 1923 1924 1925 1926 1927 1928 1929 1930s 1930 1931 1932 1933 1934 1935 1936 1937 1938 1939 1940s 1940 1941 1942 1943 1944 1945 1946 1947 1948 1949 1950s 1950 1951 1952 1953 1954 1955 1956 1957 1958 1959 1960s 1960 1961 1962 1963 1964 1965 1966 1967 1968 1969 1970s 1970 1971 1972 1973 1974 1975 1976 1977 1978 1979 1980s 1980 1981 1982 1983 1984 1985 1986 1987 1988 1989 1990s 1990 1991 1992 1993 1994 1995 1996 1997 1998 1999 2000s 2000 2001 2002 2003 2004 2005 2006 2007 2008 2009 2010s 2010 2011 2012 2013 2014 2015 2016 v t e chicago/st. louis/phoenix/arizona cardinals seasons chicago 1920 1921 1922 1923 1924 1925 1926 1927 1928 1929 1930 1931 1932 1933 1934 1935 1936 1937 1938 1939 1940 1941 1942 1943 1944 1945 1946 1947 1948 1949 1950 1951 1952 1953 1954 1955 1956 1957 1958 1959 st. louis 1960 1961 1962 1963 1964 1965 1966 1967 1968 1969 1970 1971 1972 1973 1974 1975 1976 1977 1978 1979 1980 1981 1982 1983 1984 1985 1986 1987 phoenix 1988 1989 1990 1991 1992 1993 arizona 1994 1995 1996 1997 1998 1999 2000 2001 2002 2003 2004 2005 2006 2007 2008 2009 2010 2011 2012 2013 2014 2015 2016 bold nfl championship super bowl italics super bowl v t e nfl team season lists american football conference afc east afc north afc south afc west buffalo bills miami dolphins new england patriots new york jets baltimore ravens cincinnati bengals cleveland browns pittsburgh steelers houston texans indianapolis colts jacksonville jaguars tennessee titans denver broncos kansas city chiefs oakland raiders san diego chargers national football conference nfc east nfc north nfc south nfc west dallas cowboys new york giants philadelphia eagles washington redskins chicago bears detroit lions green bay packers minnesota vikings atlanta falcons carolina panthers new orleans saints tampa bay buccaneers arizona cardinals los angeles rams san francisco 49ers seattle seahawks https://en.wikipedia.org/w/index.php?title=list_of_arizona_cardinals_seasons oldid=701830176 categories arizona cardinals seasons national football league teams seasons arizona sports-related lists navigation menu personal tools not logged in talk contributions create account log in namespaces article talk variants views read edit view history more search navigation main page contents featured content current events random article donate to wikipedia wikipedia store interaction help about wikipedia community portal recent changes contact page tools what links here related changes upload file special pages permanent link page information wikidata item cite this page print/export create a book download as pdf printable version languages italiano edit links text is available under the  creative commons attribution-sharealike license terms of use privacy policy wikimedia foundation, inc. privacy policy about wikipedia disclaimers contact wikipedia developers cookie statement mobile view'
p3
a.